; ModuleID = 'source-C-CXX/44/309.c'
source_filename = "source-C-CXX/44/309.c"
target datalayout = "e-m:e-p270:32:32-p271:32:32-p272:64:64-i64:64-f80:128-n8:16:32:64-S128"
target triple = "x86_64-pc-linux-gnu"

@.str = private unnamed_addr constant [6 x i8] c"%s %s\00", align 1
@.str.1 = private unnamed_addr constant [3 x i8] c"%d\00", align 1

; Function Attrs: nofree nounwind sspstrong uwtable
define dso_local void @main() local_unnamed_addr #0 {
  %1 = alloca [50 x i8], align 16
  %2 = alloca [50 x i8], align 16
  %3 = getelementptr inbounds [50 x i8], [50 x i8]* %1, i64 0, i64 0
  call void @llvm.lifetime.start.p0i8(i64 50, i8* nonnull %3) #4
  %4 = getelementptr inbounds [50 x i8], [50 x i8]* %2, i64 0, i64 0
  call void @llvm.lifetime.start.p0i8(i64 50, i8* nonnull %4) #4
  %5 = call i32 (i8*, ...) @__isoc99_scanf(i8* getelementptr inbounds ([6 x i8], [6 x i8]* @.str, i64 0, i64 0), i8* nonnull %3, i8* nonnull %4)
  %6 = call i64 @strlen(i8* noundef nonnull %3) #5
  %7 = trunc i64 %6 to i32
  %8 = load i8, i8* %3, align 16
  %9 = getelementptr inbounds [50 x i8], [50 x i8]* %1, i64 0, i64 1
  %10 = load i8, i8* %9, align 1
  %11 = load i8, i8* %4, align 16, !tbaa !5
  %12 = icmp eq i8 %11, 0
  br i1 %12, label %48, label %13

13:                                               ; preds = %0
  %14 = icmp eq i8 %10, 0
  br i1 %14, label %15, label %17

15:                                               ; preds = %13
  %16 = icmp eq i32 %7, 1
  br i1 %16, label %40, label %48

17:                                               ; preds = %13, %43
  %18 = phi i64 [ %44, %43 ], [ 0, %13 ]
  %19 = phi i8 [ %46, %43 ], [ %11, %13 ]
  %20 = icmp eq i8 %19, %8
  br i1 %20, label %21, label %35

21:                                               ; preds = %17, %29
  %22 = phi i64 [ %31, %29 ], [ 1, %17 ]
  %23 = phi i8 [ %33, %29 ], [ %10, %17 ]
  %24 = phi i32 [ %30, %29 ], [ 1, %17 ]
  %25 = add nuw nsw i64 %22, %18
  %26 = getelementptr inbounds [50 x i8], [50 x i8]* %2, i64 0, i64 %25
  %27 = load i8, i8* %26, align 1, !tbaa !5
  %28 = icmp eq i8 %27, %23
  br i1 %28, label %29, label %35

29:                                               ; preds = %21
  %30 = add nuw nsw i32 %24, 1
  %31 = add nuw i64 %22, 1
  %32 = getelementptr inbounds [50 x i8], [50 x i8]* %1, i64 0, i64 %31
  %33 = load i8, i8* %32, align 1, !tbaa !5
  %34 = icmp eq i8 %33, 0
  br i1 %34, label %35, label %21, !llvm.loop !8

35:                                               ; preds = %21, %29, %17
  %36 = phi i32 [ 1, %17 ], [ %24, %21 ], [ %30, %29 ]
  %37 = icmp eq i32 %36, %7
  br i1 %37, label %38, label %43

38:                                               ; preds = %35
  %39 = trunc i64 %18 to i32
  br label %40

40:                                               ; preds = %15, %38
  %41 = phi i32 [ %39, %38 ], [ 0, %15 ]
  %42 = call i32 (i8*, ...) @printf(i8* nonnull dereferenceable(1) getelementptr inbounds ([3 x i8], [3 x i8]* @.str.1, i64 0, i64 0), i32 %41)
  br label %48

43:                                               ; preds = %35
  %44 = add nuw nsw i64 %18, 1
  %45 = getelementptr inbounds [50 x i8], [50 x i8]* %2, i64 0, i64 %44
  %46 = load i8, i8* %45, align 1, !tbaa !5
  %47 = icmp eq i8 %46, 0
  br i1 %47, label %48, label %17, !llvm.loop !10

48:                                               ; preds = %43, %15, %0, %40
  call void @llvm.lifetime.end.p0i8(i64 50, i8* nonnull %4) #4
  call void @llvm.lifetime.end.p0i8(i64 50, i8* nonnull %3) #4
  ret void
}

; Function Attrs: argmemonly mustprogress nofree nosync nounwind willreturn
declare void @llvm.lifetime.start.p0i8(i64 immarg, i8* nocapture) #1

; Function Attrs: nofree nounwind
declare noundef i32 @__isoc99_scanf(i8* nocapture noundef readonly, ...) local_unnamed_addr #2

; Function Attrs: argmemonly mustprogress nofree nounwind readonly willreturn
declare i64 @strlen(i8* nocapture) local_unnamed_addr #3

; Function Attrs: nofree nounwind
declare noundef i32 @printf(i8* nocapture noundef readonly, ...) local_unnamed_addr #2

; Function Attrs: argmemonly mustprogress nofree nosync nounwind willreturn
declare void @llvm.lifetime.end.p0i8(i64 immarg, i8* nocapture) #1


!llvm.module.flags = !{!0, !1, !2, !3}
!llvm.ident = !{!4}

!0 = !{i32 1, !"wchar_size", i32 4}
!1 = !{i32 7, !"PIC Level", i32 2}
!2 = !{i32 7, !"PIE Level", i32 2}
!3 = !{i32 7, !"uwtable", i32 1}
!4 = !{!"clang version 13.0.0"}
!5 = !{!6, !6, i64 0}
!6 = !{!"omnipotent char", !7, i64 0}
!7 = !{!"Simple C/C++ TBAA"}
!8 = distinct !{!8, !9}
!9 = !{!"llvm.loop.mustprogress"}
!10 = distinct !{!10, !9}
